; Function Attrs: mustprogress uwtable
define void @_ZNK6icu_756Locale13toLanguageTagERNS_8ByteSinkER10UErrorCode(ptr nocapture noundef nonnull readonly align 8 dereferenceable(217) %this, ptr noundef nonnull align 8 dereferenceable(8) %sink, ptr noundef nonnull align 4 dereferenceable(4) %status) local_unnamed_addr #1 align 2 {
entry:
  %0 = load i32, ptr %status, align 4
  %cmp.i = icmp slt i32 %0, 1
  br i1 %cmp.i, label %if.end, label %return

if.end:                                           ; preds = %entry
  %fIsBogus = getelementptr inbounds i8, ptr %this, i64 216
  %1 = load i8, ptr %fIsBogus, align 8
  %tobool2.not = icmp eq i8 %1, 0
  br i1 %tobool2.not, label %if.end4, label %if.then3

if.then3:                                         ; preds = %if.end
  store i32 1, ptr %status, align 4
  br label %return

if.end4:                                          ; preds = %if.end
  %fullName = getelementptr inbounds i8, ptr %this, i64 40
  %2 = load ptr, ptr %fullName, align 8
  tail call void @ulocimp_toLanguageTag_75(ptr noundef %2, ptr noundef nonnull align 8 dereferenceable(8) %sink, i8 noundef signext 0, ptr noundef nonnull %status)
  br label %return

return:                                           ; preds = %entry, %if.end4, %if.then3
  ret void
}